target datalayout = "e-m:e-p270:32:32-p271:32:32-p272:64:64-i64:64-i128:128-f80:128-n8:16:32:64-S128"
target triple = "x86_64-unknown-linux-gnu"

%struct.iovec = type { ptr, i64 }
%struct.QEMUIOVector = type { ptr, i32, %union.anon }
%union.anon = type { %struct.anon }
%struct.anon = type { i32, %struct.iovec }
%struct.anon.0 = type { [12 x i8], i64 }

@.str.1 = private unnamed_addr constant [19 x i8] c"../qemu/util/iov.c\00", align 1
@.str.5 = private unnamed_addr constant [19 x i8] c"qiov->nalloc != -1\00", align 1
@__PRETTY_FUNCTION__.qemu_iovec_add = private unnamed_addr constant [52 x i8] c"void qemu_iovec_add(QEMUIOVector *, void *, size_t)\00", align 1
@.str.6 = private unnamed_addr constant [18 x i8] c"dst->nalloc != -1\00", align 1
@__PRETTY_FUNCTION__.qemu_iovec_concat_iov = private unnamed_addr constant [91 x i8] c"size_t qemu_iovec_concat_iov(QEMUIOVector *, struct iovec *, unsigned int, size_t, size_t)\00", align 1
@.str.7 = private unnamed_addr constant [13 x i8] c"soffset == 0\00", align 1

; Function Attrs: nounwind sspstrong uwtable
define dso_local void @qemu_iovec_add(ptr noundef %qiov, ptr noundef %base, i64 noundef %len) #0 {
entry:
  %qiov.addr = alloca ptr, align 8
  %base.addr = alloca ptr, align 8
  %len.addr = alloca i64, align 8
  store ptr %qiov, ptr %qiov.addr, align 8
  store ptr %base, ptr %base.addr, align 8
  store i64 %len, ptr %len.addr, align 8
  %0 = load ptr, ptr %qiov.addr, align 8
  %1 = getelementptr inbounds %struct.QEMUIOVector, ptr %0, i32 0, i32 2
  %nalloc = getelementptr inbounds %struct.anon, ptr %1, i32 0, i32 0
  %2 = load i32, ptr %nalloc, align 8
  %cmp = icmp ne i32 %2, -1
  br i1 %cmp, label %if.then, label %if.else

if.then:                                          ; preds = %entry
  br label %if.end

if.else:                                          ; preds = %entry
  call void @__assert_fail(ptr noundef @.str.5, ptr noundef @.str.1, i32 noundef 297, ptr noundef @__PRETTY_FUNCTION__.qemu_iovec_add) #9
  unreachable

if.end:                                           ; preds = %if.then
  %3 = load ptr, ptr %qiov.addr, align 8
  %niov = getelementptr inbounds %struct.QEMUIOVector, ptr %3, i32 0, i32 1
  %4 = load i32, ptr %niov, align 8
  %5 = load ptr, ptr %qiov.addr, align 8
  %6 = getelementptr inbounds %struct.QEMUIOVector, ptr %5, i32 0, i32 2
  %nalloc1 = getelementptr inbounds %struct.anon, ptr %6, i32 0, i32 0
  %7 = load i32, ptr %nalloc1, align 8
  %cmp2 = icmp eq i32 %4, %7
  br i1 %cmp2, label %if.then3, label %if.end8

if.then3:                                         ; preds = %if.end
  %8 = load ptr, ptr %qiov.addr, align 8
  %9 = getelementptr inbounds %struct.QEMUIOVector, ptr %8, i32 0, i32 2
  %nalloc4 = getelementptr inbounds %struct.anon, ptr %9, i32 0, i32 0
  %10 = load i32, ptr %nalloc4, align 8
  %mul = mul i32 2, %10
  %add = add i32 %mul, 1
  %11 = load ptr, ptr %qiov.addr, align 8
  %12 = getelementptr inbounds %struct.QEMUIOVector, ptr %11, i32 0, i32 2
  %nalloc5 = getelementptr inbounds %struct.anon, ptr %12, i32 0, i32 0
  store i32 %add, ptr %nalloc5, align 8
  %13 = load ptr, ptr %qiov.addr, align 8
  %iov = getelementptr inbounds %struct.QEMUIOVector, ptr %13, i32 0, i32 0
  %14 = load ptr, ptr %iov, align 8
  %15 = load ptr, ptr %qiov.addr, align 8
  %16 = getelementptr inbounds %struct.QEMUIOVector, ptr %15, i32 0, i32 2
  %nalloc6 = getelementptr inbounds %struct.anon, ptr %16, i32 0, i32 0
  %17 = load i32, ptr %nalloc6, align 8
  %conv = sext i32 %17 to i64
  %call = call ptr @g_realloc_n(ptr noundef %14, i64 noundef %conv, i64 noundef 16)
  %18 = load ptr, ptr %qiov.addr, align 8
  %iov7 = getelementptr inbounds %struct.QEMUIOVector, ptr %18, i32 0, i32 0
  store ptr %call, ptr %iov7, align 8
  br label %if.end8

if.end8:                                          ; preds = %if.then3, %if.end
  %19 = load ptr, ptr %base.addr, align 8
  %20 = load ptr, ptr %qiov.addr, align 8
  %iov9 = getelementptr inbounds %struct.QEMUIOVector, ptr %20, i32 0, i32 0
  %21 = load ptr, ptr %iov9, align 8
  %22 = load ptr, ptr %qiov.addr, align 8
  %niov10 = getelementptr inbounds %struct.QEMUIOVector, ptr %22, i32 0, i32 1
  %23 = load i32, ptr %niov10, align 8
  %idxprom = sext i32 %23 to i64
  %arrayidx = getelementptr %struct.iovec, ptr %21, i64 %idxprom
  %iov_base = getelementptr inbounds %struct.iovec, ptr %arrayidx, i32 0, i32 0
  store ptr %19, ptr %iov_base, align 8
  %24 = load i64, ptr %len.addr, align 8
  %25 = load ptr, ptr %qiov.addr, align 8
  %iov11 = getelementptr inbounds %struct.QEMUIOVector, ptr %25, i32 0, i32 0
  %26 = load ptr, ptr %iov11, align 8
  %27 = load ptr, ptr %qiov.addr, align 8
  %niov12 = getelementptr inbounds %struct.QEMUIOVector, ptr %27, i32 0, i32 1
  %28 = load i32, ptr %niov12, align 8
  %idxprom13 = sext i32 %28 to i64
  %arrayidx14 = getelementptr %struct.iovec, ptr %26, i64 %idxprom13
  %iov_len = getelementptr inbounds %struct.iovec, ptr %arrayidx14, i32 0, i32 1
  store i64 %24, ptr %iov_len, align 8
  %29 = load i64, ptr %len.addr, align 8
  %30 = load ptr, ptr %qiov.addr, align 8
  %31 = getelementptr inbounds %struct.QEMUIOVector, ptr %30, i32 0, i32 2
  %size = getelementptr inbounds %struct.anon.0, ptr %31, i32 0, i32 1
  %32 = load i64, ptr %size, align 8
  %add15 = add i64 %32, %29
  store i64 %add15, ptr %size, align 8
  %33 = load ptr, ptr %qiov.addr, align 8
  %niov16 = getelementptr inbounds %struct.QEMUIOVector, ptr %33, i32 0, i32 1
  %34 = load i32, ptr %niov16, align 8
  %inc = add i32 %34, 1
  store i32 %inc, ptr %niov16, align 8
  ret void
}

; Function Attrs: nounwind sspstrong uwtable
define dso_local i64 @qemu_iovec_concat_iov(ptr noundef %dst, ptr noundef %src_iov, i32 noundef %src_cnt, i64 noundef %soffset, i64 noundef %sbytes) #0 {
entry:
  %retval = alloca i64, align 8
  %dst.addr = alloca ptr, align 8
  %src_iov.addr = alloca ptr, align 8
  %src_cnt.addr = alloca i32, align 4
  %soffset.addr = alloca i64, align 8
  %sbytes.addr = alloca i64, align 8
  %i = alloca i32, align 4
  %done = alloca i64, align 8
  %len = alloca i64, align 8
  %_a8 = alloca i64, align 8
  %_b9 = alloca i64, align 8
  %tmp = alloca i64, align 8
  store ptr %dst, ptr %dst.addr, align 8
  store ptr %src_iov, ptr %src_iov.addr, align 8
  store i32 %src_cnt, ptr %src_cnt.addr, align 4
  store i64 %soffset, ptr %soffset.addr, align 8
  store i64 %sbytes, ptr %sbytes.addr, align 8
  %0 = load i64, ptr %sbytes.addr, align 8
  %tobool = icmp ne i64 %0, 0
  br i1 %tobool, label %if.end, label %if.then

if.then:                                          ; preds = %entry
  store i64 0, ptr %retval, align 8
  br label %return

if.end:                                           ; preds = %entry
  %1 = load ptr, ptr %dst.addr, align 8
  %2 = getelementptr inbounds %struct.QEMUIOVector, ptr %1, i32 0, i32 2
  %nalloc = getelementptr inbounds %struct.anon, ptr %2, i32 0, i32 0
  %3 = load i32, ptr %nalloc, align 8
  %cmp = icmp ne i32 %3, -1
  br i1 %cmp, label %if.then1, label %if.else

if.then1:                                         ; preds = %if.end
  br label %if.end2

if.else:                                          ; preds = %if.end
  call void @__assert_fail(ptr noundef @.str.6, ptr noundef @.str.1, i32 noundef 329, ptr noundef @__PRETTY_FUNCTION__.qemu_iovec_concat_iov) #9
  unreachable

if.end2:                                          ; preds = %if.then1
  store i32 0, ptr %i, align 4
  store i64 0, ptr %done, align 8
  br label %for.cond

for.cond:                                         ; preds = %for.inc, %if.end2
  %4 = load i64, ptr %done, align 8
  %5 = load i64, ptr %sbytes.addr, align 8
  %cmp3 = icmp ult i64 %4, %5
  br i1 %cmp3, label %land.rhs, label %land.end

land.rhs:                                         ; preds = %for.cond
  %6 = load i32, ptr %i, align 4
  %7 = load i32, ptr %src_cnt.addr, align 4
  %cmp4 = icmp ult i32 %6, %7
  br label %land.end

land.end:                                         ; preds = %land.rhs, %for.cond
  %8 = phi i1 [ false, %for.cond ], [ %cmp4, %land.rhs ]
  br i1 %8, label %for.body, label %for.end

for.body:                                         ; preds = %land.end
  %9 = load i64, ptr %soffset.addr, align 8
  %10 = load ptr, ptr %src_iov.addr, align 8
  %11 = load i32, ptr %i, align 4
  %idxprom = sext i32 %11 to i64
  %arrayidx = getelementptr %struct.iovec, ptr %10, i64 %idxprom
  %iov_len = getelementptr inbounds %struct.iovec, ptr %arrayidx, i32 0, i32 1
  %12 = load i64, ptr %iov_len, align 8
  %cmp5 = icmp ult i64 %9, %12
  br i1 %cmp5, label %if.then6, label %if.else14

if.then6:                                         ; preds = %for.body
  %13 = load ptr, ptr %src_iov.addr, align 8
  %14 = load i32, ptr %i, align 4
  %idxprom7 = sext i32 %14 to i64
  %arrayidx8 = getelementptr %struct.iovec, ptr %13, i64 %idxprom7
  %iov_len9 = getelementptr inbounds %struct.iovec, ptr %arrayidx8, i32 0, i32 1
  %15 = load i64, ptr %iov_len9, align 8
  %16 = load i64, ptr %soffset.addr, align 8
  %sub = sub i64 %15, %16
  store i64 %sub, ptr %_a8, align 8
  %17 = load i64, ptr %sbytes.addr, align 8
  %18 = load i64, ptr %done, align 8
  %sub10 = sub i64 %17, %18
  store i64 %sub10, ptr %_b9, align 8
  %19 = load i64, ptr %_a8, align 8
  %20 = load i64, ptr %_b9, align 8
  %cmp11 = icmp ult i64 %19, %20
  br i1 %cmp11, label %cond.true, label %cond.false

cond.true:                                        ; preds = %if.then6
  %21 = load i64, ptr %_a8, align 8
  br label %cond.end

cond.false:                                       ; preds = %if.then6
  %22 = load i64, ptr %_b9, align 8
  br label %cond.end

cond.end:                                         ; preds = %cond.false, %cond.true
  %cond = phi i64 [ %21, %cond.true ], [ %22, %cond.false ]
  store i64 %cond, ptr %tmp, align 8
  %23 = load i64, ptr %tmp, align 8
  store i64 %23, ptr %len, align 8
  %24 = load ptr, ptr %dst.addr, align 8
  %25 = load ptr, ptr %src_iov.addr, align 8
  %26 = load i32, ptr %i, align 4
  %idxprom12 = sext i32 %26 to i64
  %arrayidx13 = getelementptr %struct.iovec, ptr %25, i64 %idxprom12
  %iov_base = getelementptr inbounds %struct.iovec, ptr %arrayidx13, i32 0, i32 0
  %27 = load ptr, ptr %iov_base, align 8
  %28 = load i64, ptr %soffset.addr, align 8
  %add.ptr = getelementptr i8, ptr %27, i64 %28
  %29 = load i64, ptr %len, align 8
  call void @qemu_iovec_add(ptr noundef %24, ptr noundef %add.ptr, i64 noundef %29)
  %30 = load i64, ptr %len, align 8
  %31 = load i64, ptr %done, align 8
  %add = add i64 %31, %30
  store i64 %add, ptr %done, align 8
  store i64 0, ptr %soffset.addr, align 8
  br label %if.end19

if.else14:                                        ; preds = %for.body
  %32 = load ptr, ptr %src_iov.addr, align 8
  %33 = load i32, ptr %i, align 4
  %idxprom15 = sext i32 %33 to i64
  %arrayidx16 = getelementptr %struct.iovec, ptr %32, i64 %idxprom15
  %iov_len17 = getelementptr inbounds %struct.iovec, ptr %arrayidx16, i32 0, i32 1
  %34 = load i64, ptr %iov_len17, align 8
  %35 = load i64, ptr %soffset.addr, align 8
  %sub18 = sub i64 %35, %34
  store i64 %sub18, ptr %soffset.addr, align 8
  br label %if.end19

if.end19:                                         ; preds = %if.else14, %cond.end
  br label %for.inc

for.inc:                                          ; preds = %if.end19
  %36 = load i32, ptr %i, align 4
  %inc = add i32 %36, 1
  store i32 %inc, ptr %i, align 4
  br label %for.cond, !llvm.loop !17

for.end:                                          ; preds = %land.end
  %37 = load i64, ptr %soffset.addr, align 8
  %cmp20 = icmp eq i64 %37, 0
  br i1 %cmp20, label %if.then21, label %if.else22

if.then21:                                        ; preds = %for.end
  br label %if.end23

if.else22:                                        ; preds = %for.end
  call void @__assert_fail(ptr noundef @.str.7, ptr noundef @.str.1, i32 noundef 340, ptr noundef @__PRETTY_FUNCTION__.qemu_iovec_concat_iov) #9
  unreachable

if.end23:                                         ; preds = %if.then21
  %38 = load i64, ptr %done, align 8
  store i64 %38, ptr %retval, align 8
  br label %return

return:                                           ; preds = %if.end23, %if.then
  %39 = load i64, ptr %retval, align 8
  ret i64 %39
}