; Function Attrs: nounwind sspstrong uwtable
define dso_local i64 @qemu_iovec_concat_iov(ptr noundef captures(none) %dst, ptr noundef readonly captures(none) %src_iov, i32 noundef %src_cnt, i64 noundef %soffset, i64 noundef %sbytes) local_unnamed_addr #0 {
entry:
  %tobool.not = icmp eq i64 %sbytes, 0
  br i1 %tobool.not, label %return, label %if.end

if.end:                                           ; preds = %entry
  %0 = getelementptr inbounds nuw i8, ptr %dst, i64 16
  %1 = load i32, ptr %0, align 8
  %cmp.not = icmp eq i32 %1, -1
  br i1 %cmp.not, label %if.else, label %for.cond.preheader

for.cond.preheader:                               ; preds = %if.end
  %cmp424.not = icmp eq i32 %src_cnt, 0
  br i1 %cmp424.not, label %for.end, label %for.body.lr.ph

for.body.lr.ph:                                   ; preds = %for.cond.preheader
  %niov.i = getelementptr inbounds nuw i8, ptr %dst, i64 8
  %size.i = getelementptr inbounds nuw i8, ptr %dst, i64 32
  br label %for.body

if.else:                                          ; preds = %if.end
  tail call void @__assert_fail(ptr noundef nonnull @.str.6, ptr noundef nonnull @.str.1, i32 noundef 329, ptr noundef nonnull @__PRETTY_FUNCTION__.qemu_iovec_concat_iov) #17
  unreachable

for.body:                                         ; preds = %for.body.lr.ph, %for.inc
  %soffset.addr.027 = phi i64 [ %soffset, %for.body.lr.ph ], [ %soffset.addr.1, %for.inc ]
  %i.026 = phi i32 [ 0, %for.body.lr.ph ], [ %inc, %for.inc ]
  %done.025 = phi i64 [ 0, %for.body.lr.ph ], [ %done.1, %for.inc ]
  %idxprom = sext i32 %i.026 to i64
  %arrayidx = getelementptr %struct.iovec, ptr %src_iov, i64 %idxprom
  %iov_len = getelementptr inbounds nuw i8, ptr %arrayidx, i64 8
  %2 = load i64, ptr %iov_len, align 8
  %cmp5 = icmp ult i64 %soffset.addr.027, %2
  br i1 %cmp5, label %if.then6, label %if.else14

if.then6:                                         ; preds = %for.body
  %sub = sub nuw i64 %2, %soffset.addr.027
  %sub10 = sub i64 %sbytes, %done.025
  %cond = tail call i64 @llvm.umin.i64(i64 %sub, i64 %sub10)
  %3 = load ptr, ptr %arrayidx, align 8
  %add.ptr = getelementptr i8, ptr %3, i64 %soffset.addr.027
  %4 = load i32, ptr %0, align 8
  %cmp.not.i = icmp eq i32 %4, -1
  br i1 %cmp.not.i, label %if.else.i, label %if.end.i

if.else.i:                                        ; preds = %if.then6
  tail call void @__assert_fail(ptr noundef nonnull @.str.5, ptr noundef nonnull @.str.1, i32 noundef 297, ptr noundef nonnull @__PRETTY_FUNCTION__.qemu_iovec_add) #17
  unreachable

if.end.i:                                         ; preds = %if.then6
  %5 = load i32, ptr %niov.i, align 8
  %cmp2.i = icmp eq i32 %5, %4
  %.pre.i = load ptr, ptr %dst, align 8
  br i1 %cmp2.i, label %if.then3.i, label %qemu_iovec_add.exit

if.then3.i:                                       ; preds = %if.end.i
  %mul.i = shl i32 %4, 1
  %add.i = or disjoint i32 %mul.i, 1
  store i32 %add.i, ptr %0, align 8
  %conv.i = sext i32 %add.i to i64
  %call.i = tail call ptr @g_realloc_n(ptr noundef %.pre.i, i64 noundef %conv.i, i64 noundef 16) #19
  store ptr %call.i, ptr %dst, align 8
  %.pre15.i = load i32, ptr %niov.i, align 8
  br label %qemu_iovec_add.exit

qemu_iovec_add.exit:                              ; preds = %if.end.i, %if.then3.i
  %6 = phi i32 [ %.pre15.i, %if.then3.i ], [ %5, %if.end.i ]
  %7 = phi ptr [ %call.i, %if.then3.i ], [ %.pre.i, %if.end.i ]
  %idxprom.i = sext i32 %6 to i64
  %arrayidx.i = getelementptr %struct.iovec, ptr %7, i64 %idxprom.i
  store ptr %add.ptr, ptr %arrayidx.i, align 8
  %8 = load ptr, ptr %dst, align 8
  %9 = load i32, ptr %niov.i, align 8
  %idxprom13.i = sext i32 %9 to i64
  %iov_len.i = getelementptr %struct.iovec, ptr %8, i64 %idxprom13.i, i32 1
  store i64 %cond, ptr %iov_len.i, align 8
  %10 = load i64, ptr %size.i, align 8
  %add15.i = add i64 %10, %cond
  store i64 %add15.i, ptr %size.i, align 8
  %11 = load i32, ptr %niov.i, align 8
  %inc.i = add i32 %11, 1
  store i32 %inc.i, ptr %niov.i, align 8
  %add = add i64 %cond, %done.025
  br label %for.inc

if.else14:                                        ; preds = %for.body
  %sub18 = sub nuw i64 %soffset.addr.027, %2
  br label %for.inc

for.inc:                                          ; preds = %qemu_iovec_add.exit, %if.else14
  %done.1 = phi i64 [ %add, %qemu_iovec_add.exit ], [ %done.025, %if.else14 ]
  %soffset.addr.1 = phi i64 [ 0, %qemu_iovec_add.exit ], [ %sub18, %if.else14 ]
  %inc = add nuw i32 %i.026, 1
  %cmp3 = icmp ult i64 %done.1, %sbytes
  %cmp4 = icmp ult i32 %inc, %src_cnt
  %12 = select i1 %cmp3, i1 %cmp4, i1 false
  br i1 %12, label %for.body, label %for.end, !llvm.loop !17

for.end:                                          ; preds = %for.inc, %for.cond.preheader
  %done.0.lcssa = phi i64 [ 0, %for.cond.preheader ], [ %done.1, %for.inc ]
  %soffset.addr.0.lcssa = phi i64 [ %soffset, %for.cond.preheader ], [ %soffset.addr.1, %for.inc ]
  %cmp20 = icmp eq i64 %soffset.addr.0.lcssa, 0
  br i1 %cmp20, label %return, label %if.else22

if.else22:                                        ; preds = %for.end
  tail call void @__assert_fail(ptr noundef nonnull @.str.7, ptr noundef nonnull @.str.1, i32 noundef 340, ptr noundef nonnull @__PRETTY_FUNCTION__.qemu_iovec_concat_iov) #17
  unreachable

return:                                           ; preds = %for.end, %entry
  %retval.0 = phi i64 [ 0, %entry ], [ %done.0.lcssa, %for.end ]
  ret i64 %retval.0
}